; Function Attrs: nounwind uwtable
define ptr @glfwGetInstanceProcAddress(ptr noundef %0, ptr noundef %1) local_unnamed_addr #0 {
  %3 = load i32, ptr @_glfw, align 8, !tbaa !105
  %.not = icmp eq i32 %3, 0
  br i1 %.not, label %4, label %5

4:                                                ; preds = %2
  tail call void (i32, ptr, ...) @_glfwInputError(i32 noundef 65537, ptr noundef null) #5
  br label %18

5:                                                ; preds = %2
  %6 = tail call i32 @_glfwInitVulkan(i32 noundef 2)
  %.not10 = icmp eq i32 %6, 0
  br i1 %.not10, label %18, label %7

7:                                                ; preds = %5
  %8 = tail call i32 @strcmp(ptr noundef nonnull dereferenceable(1) %1, ptr noundef nonnull dereferenceable(22) @.str.2) #6
  %9 = icmp eq i32 %8, 0
  %10 = load ptr, ptr getelementptr inbounds nuw (i8, ptr @_glfw, i64 133832), align 8, !tbaa !94
  br i1 %9, label %18, label %11

11:                                               ; preds = %7
  %12 = tail call ptr %10(ptr noundef %0, ptr noundef nonnull %1) #5
  %13 = icmp eq ptr %12, null
  %14 = load ptr, ptr getelementptr inbounds nuw (i8, ptr @_glfw, i64 133808), align 8
  %15 = icmp ne ptr %14, null
  %or.cond = select i1 %13, i1 %15, i1 false
  br i1 %or.cond, label %16, label %18

16:                                               ; preds = %11
  %17 = tail call ptr @_glfwPlatformGetModuleSymbol(ptr noundef nonnull %14, ptr noundef nonnull %1) #5
  br label %18

18:                                               ; preds = %7, %11, %16, %5, %4
  %.08 = phi ptr [ null, %4 ], [ null, %5 ], [ %17, %16 ], [ %12, %11 ], [ %10, %7 ]
  ret ptr %.08
}